; Function Attrs: mustprogress nofree norecurse nosync nounwind willreturn memory(readwrite, inaccessiblemem: none) uwtable
define internal range(i32 0, 9) i32 @ctrl_get_reference(ptr nocapture noundef readonly %0, ptr nocapture noundef %1) #7 {
  %3 = load i32, ptr %1, align 8
  %4 = icmp ult i32 %3, 41
  br i1 %4, label %5, label %11

5:                                                ; preds = %2
  %6 = getelementptr inbounds nuw i8, ptr %1, i64 16
  %7 = load ptr, ptr %6, align 8
  %8 = zext nneg i32 %3 to i64
  %9 = getelementptr i8, ptr %7, i64 %8
  %10 = add nuw nsw i32 %3, 8
  store i32 %10, ptr %1, align 8
  br label %15

11:                                               ; preds = %2
  %12 = getelementptr inbounds nuw i8, ptr %1, i64 8
  %13 = load ptr, ptr %12, align 8
  %14 = getelementptr i8, ptr %13, i64 8
  store ptr %14, ptr %12, align 8
  br label %15

15:                                               ; preds = %11, %5
  %16 = phi ptr [ %9, %5 ], [ %13, %11 ]
  %17 = load ptr, ptr %16, align 8
  %.not = icmp eq ptr %17, null
  br i1 %.not, label %get_ref_frame.exit.thread, label %18

18:                                               ; preds = %15
  %19 = load i32, ptr %17, align 8
  %or.cond.i = icmp ugt i32 %19, 7
  br i1 %or.cond.i, label %get_ref_frame.exit.thread, label %20

20:                                               ; preds = %18
  %21 = getelementptr inbounds nuw i8, ptr %0, i64 27120
  %22 = load ptr, ptr %21, align 8
  %23 = getelementptr inbounds nuw i8, ptr %22, i64 32
  %24 = load ptr, ptr %23, align 8
  %25 = load ptr, ptr %24, align 8
  %26 = getelementptr inbounds i8, ptr %25, i64 48928
  %27 = zext nneg i32 %19 to i64
  %28 = getelementptr inbounds [8 x ptr], ptr %26, i64 0, i64 %27
  %29 = load ptr, ptr %28, align 8
  %30 = icmp eq ptr %29, null
  br i1 %30, label %get_ref_frame.exit.thread, label %get_ref_frame.exit

get_ref_frame.exit:                               ; preds = %20
  %31 = getelementptr inbounds nuw i8, ptr %29, i64 1312
  %32 = getelementptr inbounds nuw i8, ptr %17, i64 8
  tail call fastcc void @yuvconfig2image(ptr noundef nonnull %32, ptr noundef nonnull %31, ptr noundef null)
  br label %get_ref_frame.exit.thread

get_ref_frame.exit.thread:                        ; preds = %20, %18, %15, %get_ref_frame.exit
  %.0 = phi i32 [ 0, %get_ref_frame.exit ], [ 8, %15 ], [ 1, %18 ], [ 1, %20 ]
  ret i32 %.0
}